Certificate:
    Data:
        Version: 3 (0x2)
        Serial Number: 9 (0x9)
        Signature Algorithm: sha1WithRSAEncryption
        Issuer: C=US, O=Google, OU=Enterprise, CN=Enterprise Subordinate CA
        Validity
            Not Before: Sep 29 19:35:51 2020 GMT
            Not After : Sep 29 19:35:51 2022 GMT
        Subject: C=US, O=Google, OU=Enterprise, CN=images.domain.com
        Subject Public Key Info:
            Public Key Algorithm: rsaEncryption
                RSA Public-Key: (2048 bit)
                Modulus:
                    00:c9:14:d7:59:d8:34:a9:25:a4:93:55:60:dc:ad:
                    57:4f:3d:2d:31:d5:45:14:ed:50:d6:01:88:23:59:
                    f6:20:c7:d7:f9:42:4d:ce:4d:ef:5a:29:f3:36:af:
                    b6:bc:53:bc:fc:a6:cd:ab:e2:48:f3:b4:f2:8f:e4:
                    f3:65:87:a0:6f:7c:60:3a:7d:23:3b:db:00:7f:e8:
                    db:99:37:52:8a:18:3c:05:38:3e:54:91:89:83:5f:
                    45:da:d7:fc:47:c4:c8:72:0f:07:7e:ee:f6:87:9b:
                    7a:92:b5:81:17:ce:8b:76:d6:b4:37:61:31:35:6d:
                    e8:d7:39:a4:c5:fe:0b:7f:0d:e0:3c:00:e9:2d:8e:
                    f3:3c:04:4c:32:10:bf:b8:40:2e:6d:cd:d8:e0:05:
                    b3:69:b9:52:26:42:aa:7a:16:1d:7e:66:f1:61:07:
                    f3:fe:19:a5:ef:51:66:17:a6:7f:61:22:3c:3e:85:
                    b2:7a:77:b3:5e:10:fd:2e:00:fb:28:32:6c:47:14:
                    5d:21:4d:e4:32:59:3a:33:a7:6e:62:9b:5f:54:d6:
                    8d:d1:70:70:b8:f4:14:61:ee:8b:49:be:75:5a:e4:
                    d8:d2:e4:f5:36:44:9a:d2:8f:af:3a:9f:32:2b:12:
                    31:b7:57:de:ad:d4:e5:b9:69:28:73:17:b7:26:97:
                    ae:99
                Exponent: 65537 (0x10001)
        X509v3 extensions:
            X509v3 Key Usage: critical
                Digital Signature
            X509v3 Basic Constraints: 
                CA:FALSE
            X509v3 Extended Key Usage: 
                TLS Web Server Authentication
            X509v3 Subject Key Identifier: 
                9D:82:D0:67:C6:F1:70:DA:D0:68:FA:6D:97:E2:7D:4E:79:77:76:F8
            X509v3 Authority Key Identifier: 
                keyid:BF:E1:1C:F0:22:48:8F:FC:3B:CF:5D:D9:ED:AE:88:70:21:DF:DD:86

            Authority Information Access: 
                CA Issuers - URI:http://pki.esodemoapp2.com/ca/tls-ca.cer

            X509v3 CRL Distribution Points: 

                Full Name:
                  URI:http://pki.esodemoapp2.com/ca/tls-ca.crl

            X509v3 Subject Alternative Name: 
                DNS:images.domain.com
    Signature Algorithm: sha1WithRSAEncryption
         c6:0b:3b:ef:54:c0:0d:c0:83:ff:52:89:2f:c0:10:91:6f:95:
         a1:30:f6:ca:8f:e2:34:14:1b:13:09:8b:8f:4f:91:e8:51:e3:
         20:55:71:09:64:a1:da:f0:4e:23:aa:bd:ed:a7:e8:5e:3c:5c:
         c8:ec:7d:bd:6f:b5:28:eb:b5:ea:87:e0:5f:3a:ec:44:0f:e9:
         25:f4:2c:a4:a6:66:24:7c:eb:a1:00:c1:4a:4c:51:39:42:c6:
         17:84:a2:88:d2:00:76:9f:34:f1:e6:d4:88:be:35:e6:72:66:
         16:b5:59:73:a3:aa:0d:bb:b9:8e:4e:f1:a0:2d:f3:fe:c5:cc:
         69:1b:34:a8:da:0c:f4:da:6e:a2:f5:90:64:25:92:31:7b:03:
         ba:79:00:0b:dd:c5:49:2d:cb:39:55:7f:78:33:44:c9:86:fa:
         03:6c:e5:c3:12:4d:05:25:ab:a8:c1:42:af:9d:e5:75:14:a3:
         78:a9:2e:42:51:4a:81:50:03:bf:1b:5a:7d:d7:9f:47:93:8f:
         42:df:1b:b7:c2:04:61:09:79:77:39:65:45:78:f4:f9:9c:6f:
         06:2a:52:35:3d:e1:03:ad:7a:c0:c1:06:da:18:da:19:8c:63:
         d5:4f:62:b5:93:52:af:20:26:e2:a9:2a:1e:ed:40:50:2c:8a:
         27:32:01:ab
-----BEGIN CERTIFICATE-----
MIIENjCCAx6gAwIBAgIBCTANBgkqhkiG9w0BAQUFADBXMQswCQYDVQQGEwJVUzEP
MA0GA1UECgwGR29vZ2xlMRMwEQYDVQQLDApFbnRlcnByaXNlMSIwIAYDVQQDDBlF
bnRlcnByaXNlIFN1Ym9yZGluYXRlIENBMB4XDTIwMDkyOTE5MzU1MVoXDTIyMDky
OTE5MzU1MVowTzELMAkGA1UEBhMCVVMxDzANBgNVBAoMBkdvb2dsZTETMBEGA1UE
CwwKRW50ZXJwcmlzZTEaMBgGA1UEAwwRaW1hZ2VzLmRvbWFpbi5jb20wggEiMA0G
CSqGSIb3DQEBAQUAA4IBDwAwggEKAoIBAQDJFNdZ2DSpJaSTVWDcrVdPPS0x1UUU
7VDWAYgjWfYgx9f5Qk3OTe9aKfM2r7a8U7z8ps2r4kjztPKP5PNlh6BvfGA6fSM7
2wB/6NuZN1KKGDwFOD5UkYmDX0Xa1/xHxMhyDwd+7vaHm3qStYEXzot21rQ3YTE1
bejXOaTF/gt/DeA8AOktjvM8BEwyEL+4QC5tzdjgBbNpuVImQqp6Fh1+ZvFhB/P+
GaXvUWYXpn9hIjw+hbJ6d7NeEP0uAPsoMmxHFF0hTeQyWTozp25im19U1o3RcHC4
9BRh7otJvnVa5NjS5PU2RJrSj686nzIrEjG3V96t1OW5aShzF7cml66ZAgMBAAGj
ggETMIIBDzAOBgNVHQ8BAf8EBAMCB4AwCQYDVR0TBAIwADATBgNVHSUEDDAKBggr
BgEFBQcDATAdBgNVHQ4EFgQUnYLQZ8bxcNrQaPptl+J9Tnl3dvgwHwYDVR0jBBgw
FoAUv+Ec8CJIj/w7z13Z7a6IcCHf3YYwRAYIKwYBBQUHAQEEODA2MDQGCCsGAQUF
BzAChihodHRwOi8vcGtpLmVzb2RlbW9hcHAyLmNvbS9jYS90bHMtY2EuY2VyMDkG
A1UdHwQyMDAwLqAsoCqGKGh0dHA6Ly9wa2kuZXNvZGVtb2FwcDIuY29tL2NhL3Rs
cy1jYS5jcmwwHAYDVR0RBBUwE4IRaW1hZ2VzLmRvbWFpbi5jb20wDQYJKoZIhvcN
AQEFBQADggEBAMYLO+9UwA3Ag/9SiS/AEJFvlaEw9sqP4jQUGxMJi49PkehR4yBV
cQlkodrwTiOqve2n6F48XMjsfb1vtSjrteqH4F867EQP6SX0LKSmZiR866EAwUpM
UTlCxheEoojSAHafNPHm1Ii+NeZyZha1WXOjqg27uY5O8aAt8/7FzGkbNKjaDPTa
bqL1kGQlkjF7A7p5AAvdxUktyzlVf3gzRMmG+gNs5cMSTQUlq6jBQq+d5XUUo3ip
LkJRSoFQA78bWn3Xn0eTj0LfG7fCBGEJeXc5ZUV49PmcbwYqUjU94QOtesDBBtoY
2hmMY9VPYrWTUq8gJuKpKh7tQFAsiicyAas=
-----END CERTIFICATE-----
